; Function Attrs: nounwind uwtable
define void @Kit_FactorTest(ptr noundef %0, i32 noundef %1) local_unnamed_addr #0 {
  %calloc.i = tail call noalias noundef dereferenceable_or_null(16) ptr @calloc(i64 1, i64 16)
  %3 = tail call i32 @Kit_TruthIsop(ptr noundef %0, i32 noundef %1, ptr noundef %calloc.i, i32 noundef 0) #8
  %calloc.i15 = tail call noalias noundef dereferenceable_or_null(16) ptr @calloc(i64 1, i64 16)
  %4 = tail call ptr @Kit_SopFactor(ptr noundef %calloc.i, i32 noundef 0, i32 noundef %1, ptr noundef %calloc.i15)
  %5 = getelementptr i8, ptr %calloc.i, i64 4
  %.val12 = load i32, ptr %5, align 4, !tbaa !3
  %6 = getelementptr i8, ptr %4, i64 4
  %.val13 = load i32, ptr %6, align 4, !tbaa !20
  %7 = getelementptr i8, ptr %4, i64 8
  %.val14 = load i32, ptr %7, align 8, !tbaa !24
  %8 = sub nsw i32 %.val14, %.val13
  %9 = getelementptr i8, ptr %calloc.i15, i64 4
  %.val = load i32, ptr %9, align 4, !tbaa !3
  %10 = tail call i32 (ptr, ...) @printf(ptr noundef nonnull dereferenceable(1) @.str, i32 noundef %1, i32 noundef %.val12, i32 noundef %8, i32 noundef %.val)
  %11 = getelementptr inbounds nuw i8, ptr %calloc.i15, i64 8
  %12 = load ptr, ptr %11, align 8, !tbaa !10
  %.not.i = icmp eq ptr %12, null
  br i1 %.not.i, label %Vec_IntFree.exit, label %13

13:                                               ; preds = %2
  tail call void @free(ptr noundef nonnull %12) #8
  br label %Vec_IntFree.exit

Vec_IntFree.exit:                                 ; preds = %2, %13
  tail call void @free(ptr noundef nonnull %calloc.i15) #8
  %14 = getelementptr inbounds nuw i8, ptr %calloc.i, i64 8
  %15 = load ptr, ptr %14, align 8, !tbaa !10
  %.not.i16 = icmp eq ptr %15, null
  br i1 %.not.i16, label %Vec_IntFree.exit17, label %16

16:                                               ; preds = %Vec_IntFree.exit
  tail call void @free(ptr noundef nonnull %15) #8
  br label %Vec_IntFree.exit17

Vec_IntFree.exit17:                               ; preds = %Vec_IntFree.exit, %16
  tail call void @free(ptr noundef nonnull %calloc.i) #8
  tail call void @Kit_GraphFree(ptr noundef nonnull %4) #8
  ret void
}